target datalayout = "e-m:e-p270:32:32-p271:32:32-p272:64:64-i64:64-i128:128-f80:128-n8:16:32:64-S128"
target triple = "x86_64-pc-linux-gnu"

%struct._zend_executor_globals = type { %struct._zval_struct, %struct._zval_struct, [32 x ptr], ptr, ptr, %struct._zend_array, %struct._zend_array, ptr, i32, i32, ptr, ptr, ptr, ptr, ptr, ptr, i64, ptr, ptr, i32, i32, i64, i32, i32, i32, i8, i8, %struct.zend_atomic_bool_s, %struct.zend_atomic_bool_s, ptr, i64, ptr, ptr, %struct._zend_array, %struct._zend_array, i32, i8, %struct._zval_struct, %struct._zval_struct, %struct._zend_stack, %struct._zend_stack, %struct._zend_stack, ptr, i32, i32, i64, ptr, ptr, ptr, %struct._zend_objects_store, ptr, ptr, ptr, [3 x %struct._zend_op], ptr, i8, i8, i64, i32, i32, ptr, [16 x %struct._HashTableIterator], ptr, %union._zend_function, %struct._zend_op, %struct._zend_array, i64, %struct.zend_get_gc_buffer, ptr, ptr, ptr, i64, i8, i32, ptr, ptr, i64, %struct._zend_call_stack, i64, i64, [6 x ptr] }
%struct.zend_atomic_bool_s = type { i8 }
%struct._zval_struct = type { %union._zend_value, %union.anon, %union.anon.2 }
%union._zend_value = type { i64 }
%union.anon = type { i32 }
%union.anon.2 = type { i32 }
%struct._zend_stack = type { i32, i32, i32, ptr }
%struct._zend_objects_store = type { ptr, i32, i32, i32 }
%struct._HashTableIterator = type { ptr, i32, i32 }
%union._zend_function = type { %struct._zend_op_array }
%struct._zend_op_array = type { i8, [3 x i8], i32, ptr, ptr, ptr, i32, i32, ptr, ptr, ptr, ptr, i32, i32, i32, i32, ptr, ptr, ptr, ptr, ptr, i32, i32, ptr, ptr, ptr, i32, i32, i32, i32, ptr, ptr, [6 x ptr] }
%struct._zend_op = type { ptr, %union._znode_op, %union._znode_op, %union._znode_op, i32, i32, i8, i8, i8, i8 }
%union._znode_op = type { i32 }
%struct._zend_array = type { %struct._zend_refcounted_h, %union.anon.4, i32, %union.anon.6, i32, i32, i32, i32, i64, ptr }
%struct._zend_refcounted_h = type { i32, %union.anon.3 }
%union.anon.3 = type { i32 }
%union.anon.4 = type { i32 }
%union.anon.6 = type { ptr }
%struct.zend_get_gc_buffer = type { ptr, ptr, ptr }
%struct._zend_call_stack = type { ptr, i64 }
%struct._zend_execute_data = type { ptr, ptr, ptr, ptr, %struct._zval_struct, ptr, ptr, ptr, ptr }

@executor_globals = external global %struct._zend_executor_globals, align 8
@.str.34 = private unnamed_addr constant [14 x i8] c"stream filter\00", align 1
@.str.35 = private unnamed_addr constant [37 x i8] c"Unable to flush filter, not removing\00", align 1

; Function Attrs: nounwind uwtable
define hidden void @zif_stream_filter_remove(ptr noundef %0, ptr noundef %1) #0 {
  %3 = alloca ptr, align 8
  %4 = alloca ptr, align 8
  %5 = alloca i1, align 1
  %6 = alloca ptr, align 8
  %7 = alloca ptr, align 8
  %8 = alloca i8, align 1
  %9 = alloca ptr, align 8
  %10 = alloca ptr, align 8
  %11 = alloca ptr, align 8
  %12 = alloca ptr, align 8
  %13 = alloca i32, align 4
  %14 = alloca i32, align 4
  %15 = alloca i32, align 4
  %16 = alloca i32, align 4
  %17 = alloca i32, align 4
  %18 = alloca ptr, align 8
  %19 = alloca ptr, align 8
  %20 = alloca i32, align 4
  %21 = alloca ptr, align 8
  %22 = alloca i8, align 1
  %23 = alloca i8, align 1
  %24 = alloca i32, align 4
  store ptr %0, ptr %9, align 8
  store ptr %1, ptr %10, align 8
  br label %25

25:                                               ; preds = %2
  store i32 0, ptr %13, align 4
  store i32 1, ptr %14, align 4
  store i32 1, ptr %15, align 4
  %26 = load ptr, ptr %9, align 8
  %27 = getelementptr inbounds %struct._zend_execute_data, ptr %26, i32 0, i32 4
  %28 = getelementptr inbounds %struct._zval_struct, ptr %27, i32 0, i32 2
  %29 = load i32, ptr %28, align 4
  store i32 %29, ptr %16, align 4
  store i32 0, ptr %17, align 4
  store ptr null, ptr %19, align 8
  store i32 0, ptr %20, align 4
  store ptr null, ptr %21, align 8
  store i8 0, ptr %22, align 1
  store i8 0, ptr %23, align 1
  store i32 0, ptr %24, align 4
  br label %30

30:                                               ; preds = %25
  %31 = load i32, ptr %16, align 4
  %32 = load i32, ptr %14, align 4
  %33 = icmp ult i32 %31, %32
  %34 = xor i1 %33, true
  %35 = xor i1 %34, true
  %36 = zext i1 %35 to i32
  %37 = sext i32 %36 to i64
  %38 = icmp ne i64 %37, 0
  br i1 %38, label %48, label %39

39:                                               ; preds = %30
  %40 = load i32, ptr %16, align 4
  %41 = load i32, ptr %15, align 4
  %42 = icmp ugt i32 %40, %41
  %43 = xor i1 %42, true
  %44 = xor i1 %43, true
  %45 = zext i1 %44 to i32
  %46 = sext i32 %45 to i64
  %47 = icmp ne i64 %46, 0
  br i1 %47, label %48, label %51

48:                                               ; preds = %39, %30
  %49 = load i32, ptr %14, align 4
  %50 = load i32, ptr %15, align 4
  call void @zend_wrong_parameters_count_error(i32 noundef %49, i32 noundef %50)
  store i32 1, ptr %24, align 4
  br label %135

51:                                               ; preds = %39
  %52 = load ptr, ptr %9, align 8
  %53 = getelementptr inbounds %struct._zval_struct, ptr %52, i64 4
  store ptr %53, ptr %18, align 8
  %54 = load i32, ptr %17, align 4
  %55 = add i32 %54, 1
  store i32 %55, ptr %17, align 4
  %56 = load i32, ptr %17, align 4
  %57 = load i32, ptr %14, align 4
  %58 = icmp ule i32 %56, %57
  br i1 %58, label %64, label %59

59:                                               ; preds = %51
  %60 = load i8, ptr %23, align 1
  %61 = trunc i8 %60 to i1
  %62 = zext i1 %61 to i32
  %63 = icmp eq i32 %62, 1
  br label %64

64:                                               ; preds = %59, %51
  %65 = phi i1 [ true, %51 ], [ %63, %59 ]
  call void @llvm.assume(i1 %65)
  %66 = load i32, ptr %17, align 4
  %67 = load i32, ptr %14, align 4
  %68 = icmp ugt i32 %66, %67
  br i1 %68, label %74, label %69

69:                                               ; preds = %64
  %70 = load i8, ptr %23, align 1
  %71 = trunc i8 %70 to i1
  %72 = zext i1 %71 to i32
  %73 = icmp eq i32 %72, 0
  br label %74

74:                                               ; preds = %69, %64
  %75 = phi i1 [ true, %64 ], [ %73, %69 ]
  call void @llvm.assume(i1 %75)
  %76 = load i8, ptr %23, align 1
  %77 = trunc i8 %76 to i1
  br i1 %77, label %78, label %89

78:                                               ; preds = %74
  %79 = load i32, ptr %17, align 4
  %80 = load i32, ptr %16, align 4
  %81 = icmp ugt i32 %79, %80
  %82 = xor i1 %81, true
  %83 = xor i1 %82, true
  %84 = zext i1 %83 to i32
  %85 = sext i32 %84 to i64
  %86 = icmp ne i64 %85, 0
  br i1 %86, label %87, label %88

87:                                               ; preds = %78
  br label %135

88:                                               ; preds = %78
  br label %89

89:                                               ; preds = %88, %74
  %90 = load ptr, ptr %18, align 8
  %91 = getelementptr inbounds %struct._zval_struct, ptr %90, i32 1
  store ptr %91, ptr %18, align 8
  %92 = load ptr, ptr %18, align 8
  store ptr %92, ptr %19, align 8
  %93 = load ptr, ptr %19, align 8
  store ptr %93, ptr %6, align 8
  store ptr %11, ptr %7, align 8
  store i8 0, ptr %8, align 1
  %94 = load ptr, ptr %6, align 8
  store ptr %94, ptr %3, align 8
  %95 = load ptr, ptr %3, align 8
  %96 = getelementptr inbounds %struct._zval_struct, ptr %95, i32 0, i32 1
  %97 = load i8, ptr %96, align 8
  %98 = zext i8 %97 to i32
  %99 = icmp eq i32 %98, 9
  br i1 %99, label %100, label %103

100:                                              ; preds = %89
  %101 = load ptr, ptr %6, align 8
  %102 = load ptr, ptr %7, align 8
  store ptr %101, ptr %102, align 8
  br label %116

103:                                              ; preds = %89
  %104 = load i8, ptr %8, align 1
  %105 = trunc i8 %104 to i1
  br i1 %105, label %106, label %115

106:                                              ; preds = %103
  %107 = load ptr, ptr %6, align 8
  store ptr %107, ptr %4, align 8
  %108 = load ptr, ptr %4, align 8
  %109 = getelementptr inbounds %struct._zval_struct, ptr %108, i32 0, i32 1
  %110 = load i8, ptr %109, align 8
  %111 = zext i8 %110 to i32
  %112 = icmp eq i32 %111, 1
  br i1 %112, label %113, label %115

113:                                              ; preds = %106
  %114 = load ptr, ptr %7, align 8
  store ptr null, ptr %114, align 8
  br label %116

115:                                              ; preds = %106, %103
  store i1 false, ptr %5, align 1
  br label %117

116:                                              ; preds = %113, %100
  store i1 true, ptr %5, align 1
  br label %117

117:                                              ; preds = %116, %115
  %118 = load i1, ptr %5, align 1
  %119 = xor i1 %118, true
  %120 = xor i1 %119, true
  %121 = xor i1 %120, true
  %122 = zext i1 %121 to i32
  %123 = sext i32 %122 to i64
  %124 = icmp ne i64 %123, 0
  br i1 %124, label %125, label %126

125:                                              ; preds = %117
  store i32 14, ptr %20, align 4
  store i32 9, ptr %24, align 4
  br label %135

126:                                              ; preds = %117
  %127 = load i32, ptr %17, align 4
  %128 = load i32, ptr %15, align 4
  %129 = icmp eq i32 %127, %128
  br i1 %129, label %133, label %130

130:                                              ; preds = %126
  %131 = load i32, ptr %15, align 4
  %132 = icmp eq i32 %131, -1
  br label %133

133:                                              ; preds = %130, %126
  %134 = phi i1 [ true, %126 ], [ %132, %130 ]
  call void @llvm.assume(i1 %134)
  br label %135

135:                                              ; preds = %133, %125, %87, %48
  %136 = load i32, ptr %24, align 4
  %137 = icmp ne i32 %136, 0
  %138 = xor i1 %137, true
  %139 = xor i1 %138, true
  %140 = zext i1 %139 to i32
  %141 = sext i32 %140 to i64
  %142 = icmp ne i64 %141, 0
  br i1 %142, label %143, label %149

143:                                              ; preds = %135
  %144 = load i32, ptr %24, align 4
  %145 = load i32, ptr %17, align 4
  %146 = load ptr, ptr %21, align 8
  %147 = load i32, ptr %20, align 4
  %148 = load ptr, ptr %19, align 8
  call void @zend_wrong_parameter_error(i32 noundef %144, i32 noundef %145, ptr noundef %146, i32 noundef %147, ptr noundef %148)
  br label %185

149:                                              ; preds = %135
  br label %150

150:                                              ; preds = %149
  %151 = load ptr, ptr %11, align 8
  %152 = getelementptr inbounds %struct._zval_struct, ptr %151, i32 0, i32 0
  %153 = load ptr, ptr %152, align 8
  %154 = call i32 @php_file_le_stream_filter()
  %155 = call ptr @zend_fetch_resource(ptr noundef %153, ptr noundef @.str.34, i32 noundef %154)
  store ptr %155, ptr %12, align 8
  %156 = load ptr, ptr %12, align 8
  %157 = icmp ne ptr %156, null
  br i1 %157, label %163, label %158

158:                                              ; preds = %150
  br label %159

159:                                              ; preds = %158
  %160 = load ptr, ptr getelementptr inbounds (%struct._zend_executor_globals, ptr @executor_globals, i32 0, i32 50), align 8
  %161 = icmp ne ptr %160, null
  call void @llvm.assume(i1 %161)
  br label %185

162:                                              ; No predecessors!
  br label %163

163:                                              ; preds = %162, %150
  %164 = load ptr, ptr %12, align 8
  %165 = call i32 @_php_stream_filter_flush(ptr noundef %164, i32 noundef 1)
  %166 = icmp eq i32 %165, -1
  br i1 %166, label %167, label %174

167:                                              ; preds = %163
  call void (ptr, i32, ptr, ...) @php_error_docref(ptr noundef null, i32 noundef 2, ptr noundef @.str.35)
  br label %168

168:                                              ; preds = %167
  br label %169

169:                                              ; preds = %168
  %170 = load ptr, ptr %10, align 8
  %171 = getelementptr inbounds %struct._zval_struct, ptr %170, i32 0, i32 1
  store i32 2, ptr %171, align 8
  br label %172

172:                                              ; preds = %169
  br label %185

173:                                              ; No predecessors!
  br label %174

174:                                              ; preds = %173, %163
  %175 = load ptr, ptr %11, align 8
  %176 = getelementptr inbounds %struct._zval_struct, ptr %175, i32 0, i32 0
  %177 = load ptr, ptr %176, align 8
  call void @zend_list_close(ptr noundef %177)
  %178 = load ptr, ptr %12, align 8
  %179 = call ptr @php_stream_filter_remove(ptr noundef %178, i32 noundef 1)
  br label %180

180:                                              ; preds = %174
  br label %181

181:                                              ; preds = %180
  %182 = load ptr, ptr %10, align 8
  %183 = getelementptr inbounds %struct._zval_struct, ptr %182, i32 0, i32 1
  store i32 3, ptr %183, align 8
  br label %184

184:                                              ; preds = %181
  br label %185

185:                                              ; preds = %184, %172, %159, %143
  ret void
}