; Function Attrs: nounwind uwtable
define hidden void @zif_stream_filter_remove(ptr noundef %0, ptr nocapture noundef writeonly %1) local_unnamed_addr #0 {
  %3 = getelementptr inbounds i8, ptr %0, i64 44
  %4 = load i32, ptr %3, align 4
  %cond = icmp eq i32 %4, 1
  br i1 %cond, label %6, label %5

5:                                                ; preds = %2
  tail call void @zend_wrong_parameters_count_error(i32 noundef 1, i32 noundef 1) #10
  br label %10

6:                                                ; preds = %2
  %7 = getelementptr inbounds i8, ptr %0, i64 80
  %8 = getelementptr inbounds i8, ptr %0, i64 88
  %9 = load i8, ptr %8, align 8
  %.not52 = icmp eq i8 %9, 9
  br i1 %.not52, label %11, label %10

10:                                               ; preds = %5, %6
  %.046.ph = phi ptr [ %7, %6 ], [ null, %5 ]
  %.045.ph = phi i32 [ 14, %6 ], [ 0, %5 ]
  %.044.ph = phi i32 [ 1, %6 ], [ 0, %5 ]
  %.0.ph = phi i32 [ 9, %6 ], [ 1, %5 ]
  tail call void @zend_wrong_parameter_error(i32 noundef %.0.ph, i32 noundef %.044.ph, ptr noundef null, i32 noundef %.045.ph, ptr noundef %.046.ph) #10
  br label %27

11:                                               ; preds = %6
  %12 = load ptr, ptr %7, align 8
  %13 = tail call i32 @php_file_le_stream_filter() #10
  %14 = tail call ptr @zend_fetch_resource(ptr noundef %12, ptr noundef nonnull @.str.34, i32 noundef %13) #10
  %.not54 = icmp eq ptr %14, null
  br i1 %.not54, label %15, label %18

15:                                               ; preds = %11
  %16 = load ptr, ptr getelementptr inbounds (%struct._zend_executor_globals, ptr @executor_globals, i64 0, i32 50), align 8
  %17 = icmp ne ptr %16, null
  tail call void @llvm.assume(i1 %17)
  br label %27

18:                                               ; preds = %11
  %19 = tail call i32 @_php_stream_filter_flush(ptr noundef nonnull %14, i32 noundef 1) #10
  %20 = icmp eq i32 %19, -1
  br i1 %20, label %21, label %23

21:                                               ; preds = %18
  tail call void (ptr, i32, ptr, ...) @php_error_docref(ptr noundef null, i32 noundef 2, ptr noundef nonnull @.str.35) #10
  %22 = getelementptr inbounds i8, ptr %1, i64 8
  store i32 2, ptr %22, align 8
  br label %27

23:                                               ; preds = %18
  %24 = load ptr, ptr %7, align 8
  tail call void @zend_list_close(ptr noundef %24) #10
  %25 = tail call ptr @php_stream_filter_remove(ptr noundef nonnull %14, i32 noundef 1) #10
  %26 = getelementptr inbounds i8, ptr %1, i64 8
  store i32 3, ptr %26, align 8
  br label %27

27:                                               ; preds = %23, %21, %15, %10
  ret void
}